ccopy_reg
_reconstructor
p0
(cnltk.tokenize.punkt
PunktSentenceTokenizer
p1
c__builtin__
object
p2
Ntp3
Rp4
(dp5
S'_Token'
p6
cnltk.tokenize.punkt
PunktToken
p7
sS'_lang_vars'
p8
g0
(cnltk.tokenize.punkt
PunktLanguageVars
p9
g2
Ntp10
Rp11
I1
bsS'_params'
p12
g0
(cnltk.tokenize.punkt
PunktParameters
p13
g2
Ntp14
Rp15
(dp16
S'sent_starters'
p17
c__builtin__
set
p18
((lp19
tp20
Rp21
sS'collocations'
p22
g18
((lp23
tp24
Rp25
sS'abbrev_types'
p26
g18
((lp27
tp28
Rp29
sS'ortho_context'
p30
ccollections
defaultdict
p31
(c__builtin__
int
p32
tp33
Rp34
sbsb.