(lp0
(lp1
(Vjohnsmith65@email.com
p2
VEMAIL
p3
tp4
a(Vjohn_smith@email.com
p5
g3
tp6
a(Vsmith.j@email.com
p7
g3
tp8
a(Vjohnpsmith@email.com
p9
g3
tp10
a(Vjp_smith65@email.com
p11
g3
tp12
aa(lp13
(VHere
p14
VIN
p15
tp16
a(Vare
p17
VVBP
p18
tp19
a(V15
p20
VCD
p21
tp22
a(Vof
p23
g15
tp24
a(Vmy
p25
VNN
p26
tp27
a(Vfavorite
p28
g26
tp29
a(Vcreative
p30
g26
tp31
a(VTwitter
p32
VNNP
p33
tp34
a(Vhandles
p35
VVBZ
p36
tp37
a(V.
p38
g38
tp39
a(VNote
p40
g33
tp41
a(V:
p42
g42
tp43
a(Vlots
p44
VNNS
p45
tp46
a(g23
g15
tp47
a(Vbusinesses
p48
g45
tp49
a(Vhave
p50
g18
tp51
a(g30
g26
tp52
a(V,
p53
g53
tp54
a(Veye-catching
p55
VJJ
p56
tp57
a(Vnames
p58
g45
tp59
a(g53
g53
tp60
a(Vand
p61
VCC
p62
tp63
a(g32
g33
tp64
a(g35
g36
tp65
a(Vto
p66
VTO
p67
tp68
a(Vmatch
p69
VVB
p70
tp71
a(V-
p72
g42
tp73
a(Vbut
p74
g62
tp75
a(g32
g33
tp76
a(g35
g36
tp77
a(Vthat
p78
VWDT
p79
tp80
a(Vuse
p81
g26
tp82
a(Vtheir
p83
VPRP$
p84
tp85
a(Vbusiness
p86
g26
tp87
a(Vname
p88
g26
tp89
a(Vdidn't
p90
g26
tp91
a(Vmake
p92
g18
tp93
a(Vthe
p94
VDT
p95
tp96
a(Vlist
p97
g56
tp98
a(g38
g38
tp99
a(VThis
p100
g33
tp101
a(Vroundup
p102
g26
tp103
a(Vis
p104
g36
tp105
a(Vfor
p106
g15
tp107
a(Vpure
p108
g56
tp109
a(VTwitter-based
p110
g56
tp111
a(Vusername
p112
g26
tp113
a(Vcleverness
p114
g26
tp115
a(Vonly
p116
VRB
p117
tp118
a(g38
g38
tp119
a(V1
p120
g21
tp121
a(g38
g38
tp122
a(V@Mickipedia
p123
VTWITTER
p124
tp125
a(V(
p126
g21
tp127
a(VMicki
p128
g33
tp129
a(VKrimmel
p130
g33
tp131
a(g53
g53
tp132
a(Vfounder
p133
g26
tp134
a(g23
g15
tp135
a(VNeighborGoods
p136
g45
tp137
a(g53
g53
tp138
a(VLA
p139
g33
tp140
a(VStartup
p141
g33
tp142
a(VClub
p143
g33
tp144
a(g53
g53
tp145
a(g61
g62
tp146
a(VThe
p147
g95
tp148
a(VIdyllic
p149
g33
tp150
a(VNerd
p151
g33
tp152
a(VCommune
p153
g33
tp154
a(V)
p155
g21
tp156
a(V2
p157
g21
tp158
a(g38
g38
tp159
a(V@missusP
p160
g124
tp161
a(g126
g21
tp162
a(VChristine
p163
g33
tp164
a(VPerkett
p165
g33
tp166
a(g53
g53
tp167
a(VPerkettPR
p168
g33
tp169
a(g133
g26
tp170
a(g53
g53
tp171
a(VForbes
p172
g33
tp173
a(Vwriter
p174
g26
tp175
a(g61
g62
tp176
a(VWorkingMom.com
p177
g33
tp178
a(Vblogger
p179
VJJR
p180
tp181
a(g155
g21
tp182
a(V3
p183
g21
tp184
a(g38
g38
tp185
a(V@ketchupandbeer
p186
g21
tp187
a(g126
g21
tp188
a(VMatt
p189
g33
tp190
a(VDunlap
p191
g33
tp192
a(g53
g53
tp193
a(Vcomputers
p194
g45
tp195
a(Vday
p196
g26
tp197
a(Vjob
p198
g26
tp199
a(g61
g62
tp200
a(Vbartender
p201
g180
tp202
a(Von
p203
g15
tp204
a(Vnights
p205
g45
tp206
a(g61
g62
tp207
a(Vweekends
p208
g45
tp209
a(g155
g21
tp210
a(g38
g38
tp211
a(VWhy
p212
g33
tp213
a(Vketchup
p214
g26
tp215
a(g61
g62
tp216
a(Vbeer
p217
g180
tp218
a(V?
p219
g38
tp220
a(g189
g33
tp221
a(Vsays
p222
g36
tp223
a(g53
g53
tp224
a(V"
p225
g21
tp226
a(VI'm
p227
g70
tp228
a(Va
p229
g95
tp230
a(Vbig
p231
g56
tp232
a(Vfan
p233
g26
tp234
a(g23
g15
tp235
a(VHeinz
p236
g33
tp237
a(g214
g26
tp238
a(g61
g62
tp239
a(g217
g180
tp240
a(g38
g38
tp241
a(VSome
p242
g33
tp243
a(Vpeople
p244
g45
tp245
a(Vask
p246
g70
tp247
a(Vif
p248
g15
tp249
a(VI
p250
g33
tp251
a(Vlike
p252
g15
tp253
a(g214
g26
tp254
a(g61
g62
tp255
a(g217
g180
tp256
a(Vtogether
p257
g117
tp258
a(g53
g53
tp259
a(g66
g67
tp260
a(Vwhich
p261
g79
tp262
a(g250
g33
tp263
a(Vreply
p264
g117
tp265
a(g53
g53
tp266
a(V'
p267
VPOS
p268
tp269
a(VNo
p270
g33
tp271
a(g38
g38
tp272
a(g267
g268
tp273
a(VIt
p274
g33
tp275
a(Vcould
p276
VMD
p277
tp278
a(g50
g18
tp279
a(Vbeen
p280
VVBN
p281
tp282
a(Vany
p283
g95
tp284
a(Vcombination
p285
g26
tp286
a(g23
g15
tp287
a(Vthings
p288
g45
tp289
a(Vreally
p290
g117
tp291
a(g53
g53
tp292
a(g74
g62
tp293
a(g250
g33
tp294
a(Vchose
p295
VVBD
p296
tp297
a(g214
g26
tp298
a(Vbecause
p299
g15
tp300
a(g227
g33
tp301
a(Vfrom
p302
g15
tp303
a(VPittsburgh
p304
g33
tp305
a(g72
g42
tp306
a(Vwhere
p307
VWRB
p308
tp309
a(g236
g33
tp310
a(Vbegan
p311
g296
tp312
a(g61
g62
tp313
a(g217
g180
tp314
a(g299
g15
tp315
a(g227
g33
tp316
a(Van
p317
g95
tp318
a(Valcoholic
p319
g117
tp320
a(g126
g21
tp321
a(Vjust
p322
g26
tp323
a(Vkidding
p324
VVBG
p325
tp326
a(g155
g21
tp327
a(g38
g38
tp328
a(g225
g21
tp329
a(V4
p330
g21
tp331
a(g38
g38
tp332
a(V@BoobsRadley
p333
g124
tp334
a(g126
g21
tp335
a(VJulieanne
p336
g33
tp337
a(VSmolinski
p338
g33
tp339
a(g53
g53
tp340
a(g174
g26
tp341
a(g61
g62
tp342
a(Vcomedian
p343
g56
tp344
a(g155
g21
tp345
a(g38
g38
tp346
a(g147
g95
tp347
a(VHuffington
p348
g33
tp349
a(VPost
p350
g33
tp351
a(Vcalled
p352
g296
tp353
a(Vher
p354
g180
tp355
a(Vone
p356
g21
tp357
a(g23
g15
tp358
a(g94
g95
tp359
a(V18
p360
g21
tp361
a(Vfunniest
p362
VJJS
p363
tp364
a(Vwomen
p365
g26
tp366
a(g203
g15
tp367
a(g32
g33
tp368
a(g53
g53
tp369
a(g61
g62
tp370
a(Vnot
p371
g117
tp372
a(g322
g26
tp373
a(g299
g15
tp374
a(g23
g15
tp375
a(g354
g180
tp376
a(Vhilarious
p377
g56
tp378
a(Vnickname-turned-Twitter-handle
p379
g56
tp380
a(g53
g53
tp381
a(g261
g79
tp382
a(g104
g36
tp383
a(g229
g95
tp384
a(Vtake
p385
g70
tp386
a(g203
g15
tp387
a(VArthur
p388
g33
tp389
a(g225
g21
tp390
a(VBoo
p391
g33
tp392
a(g225
g21
tp393
a(VRadley
p394
g33
tp395
a(g53
g53
tp396
a(g94
g95
tp397
a(Vmost
p398
g363
tp399
a(Vmysterious
p400
g56
tp401
a(Vcharacter
p402
g26
tp403
a(Vin
p404
g15
tp405
a(VTo
p406
g33
tp407
a(VKill
p408
g70
tp409
a(g229
g95
tp410
a(VMockingbird
p411
g33
tp412
a(g38
g38
tp413
a(V5
p414
g21
tp415
a(g38
g38
tp416
a(V@sarahcuda
p417
g124
tp418
a(g126
g21
tp419
a(VSarah
p420
g33
tp421
a(VLacy
p422
g33
tp423
a(g53
g53
tp424
a(VCEO
p425
g45
tp426
a(g61
g62
tp427
a(VEditor-in-Chief
p428
g33
tp429
a(g23
g15
tp430
a(VPandoDaily.com
p431
g33
tp432
a(g155
g21
tp433
a(V6
p434
g21
tp435
a(g38
g38
tp436
a(V@Dutch_Oven45
p437
g124
tp438
a(g126
g21
tp439
a(VDerek
p440
g33
tp441
a(VHolland
p442
g33
tp443
a(g53
g53
tp444
a(VMLB
p445
g33
tp446
a(Vpitcher
p447
g26
tp448
a(g106
g15
tp449
a(VTexas
p450
g33
tp451
a(VRangers
p452
g33
tp453
a(g155
g21
tp454
a(V7
p455
g21
tp456
a(g38
g38
tp457
a(V@GrillCheese49
p458
g124
tp459
a(g126
g21
tp460
a(VJason
p461
g33
tp462
a(VGrilli
p463
g33
tp464
a(g53
g53
tp465
a(g304
g33
tp466
a(VPirate
p467
g33
tp468
a(VPitcher
p469
g33
tp470
a(g61
g62
tp471
a(g425
g45
tp472
a(g23
g15
tp473
a(VPerfect
p474
g33
tp475
a(VPitch
p476
g33
tp477
a(VMarketing
p478
g33
tp479
a(g155
g21
tp480
a(g38
g38
tp481
a(VAccording
p482
g33
tp483
a(g66
g67
tp484
a(VBleacher
p485
g33
tp486
a(VReport
p487
g33
tp488
a(g53
g53
tp489
a(g461
g33
tp490
a(VGrilli's
p491
g33
tp492
a(g28
g26
tp493
a(Vsnack
p494
g26
tp495
a(g104
g36
tp496
a(Vgrilled
p497
g281
tp498
a(Vcheese
p499
g26
tp500
a(Vsandwiches
p501
g45
tp502
a(g38
g38
tp503
a(VPlus
p504
g33
tp505
a(g53
g53
tp506
a(Vhe's
p507
g36
tp508
a(g229
g95
tp509
a(Vmarketing
p510
g26
tp511
a(V/
p512
g21
tp513
a(Vbranding
p514
g26
tp515
a(Vwhiz
p516
g15
tp517
a(g38
g38
tp518
a(V8
p519
g21
tp520
a(g38
g38
tp521
a(V@DeweyDecibel
p522
g124
tp523
a(g126
g21
tp524
a(VDewey
p525
g33
tp526
a(VSaunders
p527
g33
tp528
a(g53
g53
tp529
a(Vartist
p530
g26
tp531
a(g61
g62
tp532
a(VCreative
p533
g33
tp534
a(VDirector
p535
g33
tp536
a(g23
g15
tp537
a(VBold
p538
g33
tp539
a(VNew
p540
g33
tp541
a(VBreed
p542
g33
tp543
a(Vrecord
p544
g26
tp545
a(Vlabel
p546
g26
tp547
a(g155
g21
tp548
a(V9
p549
g21
tp550
a(g38
g38
tp551
a(V@feistyfeaster
p552
g124
tp553
a(g126
g21
tp554
a(VMonica
p555
g33
tp556
a(g53
g53
tp557
a(VSeattle
p558
g33
tp559
a(Vfood
p560
g26
tp561
a(g179
g180
tp562
a(g155
g21
tp563
a(V10
p564
g21
tp565
a(g38
g38
tp566
a(V@iamdiddy
p567
g124
tp568
a(g126
g21
tp569
a(VP
p570
g33
tp571
a(g38
g38
tp572
a(VDiddy
p573
g33
tp574
a(g53
g53
tp575
a(Vrapper
p576
g26
tp577
a(g53
g53
tp578
a(Ventrepreneur
p579
g56
tp580
a(g53
g53
tp581
a(Vfashion
p582
g26
tp583
a(Vdesigner
p584
g26
tp585
a(g155
g21
tp586
a(g38
g38
tp587
a(VArrogant
p588
g33
tp589
a(g219
g38
tp590
a(VYes
p591
g33
tp592
a(g38
g38
tp593
a(g533
g33
tp594
a(g61
g62
tp595
a(Vmemorable
p596
g56
tp597
a(g219
g38
tp598
a(g591
g33
tp599
a(g38
g38
tp600
a(V11
p601
g21
tp602
a(g38
g38
tp603
a(V@JudahWorldChamp
p604
g124
tp605
a(g126
g21
tp606
a(VJudah
p607
g33
tp608
a(VFriedlander
p609
g33
tp610
a(g53
g53
tp611
a(g343
g56
tp612
a(g155
g21
tp613
a(g38
g38
tp614
a(g607
g33
tp615
a(g104
g36
tp616
a(g404
g15
tp617
a(Vno
p618
g95
tp619
a(Vway
p620
g26
tp621
a(g317
g95
tp622
a(Vactual
p623
g56
tp624
a(Vworld
p625
g26
tp626
a(Vchamp
p627
g26
tp628
a(g126
g21
tp629
a(Vdespite
p630
g70
tp631
a(g94
g95
tp632
a(Vfact
p633
g26
tp634
a(g78
g15
tp635
a(Vhis
p636
g84
tp637
a(g32
g33
tp638
a(Vbio
p639
g26
tp640
a(Vstates
p641
g45
tp642
a(g53
g53
tp643
a(g225
g21
tp644
a(g100
g33
tp645
a(g104
g36
tp646
a(g94
g95
tp647
a(Vofficial
p648
g56
tp649
a(Vtwitter
p650
g117
tp651
a(g23
g15
tp652
a(g147
g95
tp653
a(VWorld
p654
g33
tp655
a(VChampion
p656
g33
tp657
a(g38
g38
tp658
a(g225
g21
tp659
a(g155
g21
tp660
a(g38
g38
tp661
a(VWhat
p662
g33
tp663
a(Vhe
p664
VPRP
p665
tp666
a(g104
g36
tp667
a(g53
g53
tp668
a(Vhowever
p669
g117
tp670
a(g53
g53
tp671
a(g104
g36
tp672
a(g377
g56
tp673
a(g38
g38
tp674
a(V12
p675
g21
tp676
a(g38
g38
tp677
a(V@rebuildinglives
p678
g124
tp679
a(g126
g21
tp680
a(VYellow
p681
g33
tp682
a(VBrick
p683
g33
tp684
a(VHouse
p685
g33
tp686
a(g53
g53
tp687
a(Vemergency
p688
g26
tp689
a(Vshelter
p690
g26
tp691
a(g53
g53
tp692
a(Vcounselling
p693
g325
tp694
a(g61
g62
tp695
a(Vsupportive
p696
g56
tp697
a(Vservices
p698
g45
tp699
a(Vorganization
p700
g26
tp701
a(g404
g15
tp702
a(VOntario
p703
g33
tp704
a(g155
g21
tp705
a(V13
p706
g21
tp707
a(g38
g38
tp708
a(V@offalchris
p709
g124
tp710
a(g126
g21
tp711
a(VChris
p712
g33
tp713
a(VCosentino
p714
g33
tp715
a(g53
g53
tp716
a(VAmerican
p717
g56
tp718
a(Vchef
p719
g26
tp720
a(Vnoted
p721
g281
tp722
a(g106
g15
tp723
a(Voffal
p724
g56
tp725
a(Vdishes
p726
g45
tp727
a(g155
g21
tp728
a(V14
p729
g21
tp730
a(g38
g38
tp731
a(V@AskBartenders
p732
g124
tp733
a(g126
g21
tp734
a(VBartender's
p735
g33
tp736
a(VNetwork
p737
g33
tp738
a(g53
g53
tp739
a(Vworldwide
p740
g665
tp741
a(Vmixologist
p742
g26
tp743
a(Vnetwork
p744
g56
tp745
a(g155
g21
tp746
a(g20
g21
tp747
a(g38
g38
tp748
a(V@plattypants
p749
g124
tp750
a(g126
g21
tp751
a(VAdam
p752
g33
tp753
a(VPlatt
p754
g33
tp755
a(g53
g53
tp756
a(Vchief
p757
g26
tp758
a(g560
g26
tp759
a(Vcritic
p760
g26
tp761
a(Vat
p762
g15
tp763
a(g540
g33
tp764
a(VYork
p765
g33
tp766
a(VMagazine
p767
g33
tp768
a(g155
g21
tp769
a(VAny
p770
g33
tp771
a(g596
g56
tp772
a(g32
g33
tp773
a(g35
g36
tp774
a(Vyou've
p775
g26
tp776
a(Vnoticed
p777
g296
tp778
a(g219
g38
tp779
a(VShare
p780
g26
tp781
a(g267
g268
tp782
a(Vem
p783
g26
tp784
a(V!
p785
g21
tp786
aa(lp787
(VRT
p788
g33
tp789
a(Vbest
p790
g56
tp791
a(Vtweet
p792
g26
tp793
a(Vevarrrr
p794
g26
tp795
a(S'@123'
p796
S'TWITTER'
p797
tp798
a(S'@wierd'
p799
g797
tp800
a(S'@sad'
p801
g797
tp802
aa(lp803
(g406
g33
tp804
a(Vleave
p805
g18
tp806
a(g94
g95
tp807
a(g790
g26
tp808
a(Vimpression
p809
g15
tp810
a(Vwith
p811
g26
tp812
a(Vyour
p813
g26
tp814
a(Vemail
p815
g26
tp816
a(Vaddress
p817
g26
tp818
a(g53
g53
tp819
a(g94
g95
tp820
a(Vfirst
p821
g363
tp822
a(Vthing
p823
g79
tp824
a(Vyou
p825
g26
tp826
a(Vneed
p827
g296
tp828
a(g66
g67
tp829
a(Vdo
p830
g26
tp831
a(g104
g36
tp832
a(Vbuy
p833
g26
tp834
a(g813
g26
tp835
a(Vown
p836
g15
tp837
a(Vdomain
p838
g26
tp839
a(g38
g38
tp840
a(VIn
p841
g33
tp842
a(Vother
p843
g26
tp844
a(Vwords
p845
g45
tp846
a(g53
g53
tp847
a(g81
g26
tp848
a(VZrahman@YourBusiness.com
p849
g3
tp850
a(Vinstead
p851
g15
tp852
a(g23
g15
tp853
a(VZrahman@Yahoo.com
p854
g3
tp855
a(Vor
p856
g26
tp857
a(VZrahman@Gmail.com
p858
g3
tp859
a(g38
g38
tp860
a(Vjohn.smith
p861
g26
tp862
a(g38
g38
tp863
a(Vprogrammer
p864
g26
tp865
a(V479
p866
g21
tp867
a(g104
g36
tp868
a(Vbetter
p869
g180
tp870
a(Vthan
p871
g79
tp872
a(Vwildandcrazysaturdaynightspecial
p873
g26
tp874
a(g72
g42
tp875
a(g618
g95
tp876
a(Vmatter
p877
g26
tp878
a(Vwhat
p879
g26
tp880
a(g825
g26
tp881
a(Vread
p882
g26
tp883
a(Vinto
p884
g15
tp885
a(g78
g79
tp886
a(V...
p887
g21
tp888
a(Vit's
p889
g45
tp890
a(g322
g26
tp891
a(g371
g95
tp892
a(Vprofessional
p893
g26
tp894
a(g38
g38
tp895
a(VEvilGoddess@gmail.com
p896
g3
tp897
a(Vmight
p898
g26
tp899
a(g50
g18
tp900
a(Vseemed
p901
g296
tp902
a(g252
g26
tp903
a(g229
g95
tp904
a(Vgood
p905
g26
tp906
a(Videa
p907
g15
tp908
a(g762
g15
tp909
a(g94
g95
tp910
a(Vtime
p911
g95
tp912
a(g38
g38
tp913
a(g274
g33
tp914
a(g898
g26
tp915
a(Vbe
p916
g15
tp917
a(Vgreat
p918
g26
tp919
a(g106
g15
tp920
a(g813
g26
tp921
a(Vfriends
p922
g45
tp923
a(Vwho
p924
g26
tp925
a(Vget
p926
g26
tp927
a(g94
g95
tp928
a(Vjoke
p929
g26
tp930
a(g53
g53
tp931
a(g74
g62
tp932
a(Vsomeone
p933
g26
tp934
a(g924
g26
tp935
a(Vdoesn't
p936
g26
tp937
a(Vknow
p938
g26
tp939
a(g825
g26
tp940
a(Vmay
p941
g26
tp942
a(g371
g95
tp943
a(Vdraw
p944
g26
tp945
a(g94
g95
tp946
a(Vsame
p947
g26
tp948
a(Vconclusions
p949
g45
tp950
a(g38
g38
tp951
a(VIf
p952
g33
tp953
a(g825
g26
tp954
a(Vwant
p955
g26
tp956
a(g229
g95
tp957
a(g893
g26
tp958
a(g815
g26
tp959
a(Vthen
p960
g26
tp961
a(Vdon't
p962
g26
tp963
a(g81
g26
tp964
a(Vregular
p965
g26
tp966
a(g815
g26
tp967
a(Vaddresses
p968
g45
tp969
a(g252
g26
tp970
a(Vwebmaster@gmail.com
p971
g3
tp972
a(g38
g38
tp973
aa.